target datalayout = "e-m:e-p270:32:32-p271:32:32-p272:64:64-i64:64-i128:128-f80:128-n8:16:32:64-S128"
target triple = "x86_64-unknown-linux-gnu"

%"class.proxygen::ZlibStreamCompressor" = type <{ %"class.proxygen::StreamCompressor", i32, i32, %struct.z_stream_s, i32, i8, [3 x i8] }>
%"class.proxygen::StreamCompressor" = type { ptr }
%struct.z_stream_s = type { ptr, i32, i64, ptr, i32, i64, ptr, ptr, ptr, ptr, ptr, i32, i64, i64 }

@_ZTVN8proxygen16StreamCompressorE = linkonce_odr unnamed_addr constant { [6 x ptr] } { [6 x ptr] [ptr null, ptr @_ZTIN8proxygen16StreamCompressorE, ptr @_ZN8proxygen16StreamCompressorD2Ev, ptr @_ZN8proxygen16StreamCompressorD0Ev, ptr @__cxa_pure_virtual, ptr @__cxa_pure_virtual] }, comdat, align 8

; Function Attrs: mustprogress nounwind uwtable
define linkonce_odr void @_ZN8proxygen16StreamCompressorC2Ev(ptr noundef nonnull align 8 dereferenceable(8) %this) unnamed_addr #3 comdat align 2 {
entry:
  %this.addr = alloca ptr, align 8
  store ptr %this, ptr %this.addr, align 8
  %this1 = load ptr, ptr %this.addr, align 8
  store ptr getelementptr inbounds ({ [6 x ptr] }, ptr @_ZTVN8proxygen16StreamCompressorE, i32 0, i32 0, i32 2), ptr %this1, align 8
  ret void
}

; Function Attrs: mustprogress nounwind uwtable
define void @_ZN8proxygen20ZlibStreamCompressorC2ENS_15CompressionTypeEi(ptr noundef nonnull align 8 dereferenceable(133) %this, i32 noundef %type, i32 noundef %level) unnamed_addr #3 align 2 {
entry:
  %this.addr = alloca ptr, align 8
  %type.addr = alloca i32, align 4
  %level.addr = alloca i32, align 4
  store ptr %this, ptr %this.addr, align 8
  store i32 %type, ptr %type.addr, align 4
  store i32 %level, ptr %level.addr, align 4
  %this1 = load ptr, ptr %this.addr, align 8
  call void @_ZN8proxygen16StreamCompressorC2Ev(ptr noundef nonnull align 8 dereferenceable(8) %this1) #12
  store ptr getelementptr inbounds ({ [6 x ptr] }, ptr @_ZTVN8proxygen20ZlibStreamCompressorE, i32 0, i32 0, i32 2), ptr %this1, align 8
  %type_ = getelementptr inbounds %"class.proxygen::ZlibStreamCompressor", ptr %this1, i32 0, i32 1
  %0 = load i32, ptr %type.addr, align 4
  store i32 %0, ptr %type_, align 8
  %level_ = getelementptr inbounds %"class.proxygen::ZlibStreamCompressor", ptr %this1, i32 0, i32 2
  %1 = load i32, ptr %level.addr, align 4
  store i32 %1, ptr %level_, align 4
  %status_ = getelementptr inbounds %"class.proxygen::ZlibStreamCompressor", ptr %this1, i32 0, i32 4
  store i32 0, ptr %status_, align 8
  %init_ = getelementptr inbounds %"class.proxygen::ZlibStreamCompressor", ptr %this1, i32 0, i32 5
  store i8 0, ptr %init_, align 4
  ret void
}