; Function Attrs: mustprogress nofree norecurse nosync nounwind willreturn memory(argmem: write) uwtable
define void @_ZN8proxygen20ZlibStreamCompressorC2ENS_15CompressionTypeEi(ptr nocapture noundef nonnull writeonly align 8 dereferenceable(133) %this, i32 noundef %type, i32 noundef %level) unnamed_addr #4 align 2 {
entry:
  store ptr getelementptr inbounds ({ [6 x ptr] }, ptr @_ZTVN8proxygen20ZlibStreamCompressorE, i64 0, i32 0, i64 2), ptr %this, align 8
  %type_ = getelementptr inbounds i8, ptr %this, i64 8
  store i32 %type, ptr %type_, align 8
  %level_ = getelementptr inbounds i8, ptr %this, i64 12
  store i32 %level, ptr %level_, align 4
  %status_ = getelementptr inbounds i8, ptr %this, i64 128
  store i32 0, ptr %status_, align 8
  %init_ = getelementptr inbounds i8, ptr %this, i64 132
  store i8 0, ptr %init_, align 4
  ret void
}